target datalayout = "e-m:e-p270:32:32-p271:32:32-p272:64:64-i64:64-i128:128-f80:128-n8:16:32:64-S128"
target triple = "x86_64-pc-linux-gnu"

%struct._zend_llist = type { ptr, ptr, i64, i64, ptr, i8, ptr }
%struct._zend_llist_element = type { ptr, ptr, [1 x i8] }

; Function Attrs: nounwind uwtable
define void @zend_llist_apply_with_del(ptr noundef %0, ptr noundef %1) #0 {
  %3 = alloca ptr, align 8
  %4 = alloca ptr, align 8
  %5 = alloca ptr, align 8
  %6 = alloca ptr, align 8
  store ptr %0, ptr %3, align 8
  store ptr %1, ptr %4, align 8
  %7 = load ptr, ptr %3, align 8
  %8 = getelementptr inbounds %struct._zend_llist, ptr %7, i32 0, i32 0
  %9 = load ptr, ptr %8, align 8
  store ptr %9, ptr %5, align 8
  br label %10

10:                                               ; preds = %88, %2
  %11 = load ptr, ptr %5, align 8
  %12 = icmp ne ptr %11, null
  br i1 %12, label %13, label %90

13:                                               ; preds = %10
  %14 = load ptr, ptr %5, align 8
  %15 = getelementptr inbounds %struct._zend_llist_element, ptr %14, i32 0, i32 0
  %16 = load ptr, ptr %15, align 8
  store ptr %16, ptr %6, align 8
  %17 = load ptr, ptr %4, align 8
  %18 = load ptr, ptr %5, align 8
  %19 = getelementptr inbounds %struct._zend_llist_element, ptr %18, i32 0, i32 2
  %20 = getelementptr inbounds [1 x i8], ptr %19, i64 0, i64 0
  %21 = call i32 %17(ptr noundef %20)
  %22 = icmp ne i32 %21, 0
  br i1 %22, label %23, label %88

23:                                               ; preds = %13
  %24 = load ptr, ptr %5, align 8
  %25 = getelementptr inbounds %struct._zend_llist_element, ptr %24, i32 0, i32 1
  %26 = load ptr, ptr %25, align 8
  %27 = icmp ne ptr %26, null
  br i1 %27, label %28, label %36

28:                                               ; preds = %23
  %29 = load ptr, ptr %5, align 8
  %30 = getelementptr inbounds %struct._zend_llist_element, ptr %29, i32 0, i32 0
  %31 = load ptr, ptr %30, align 8
  %32 = load ptr, ptr %5, align 8
  %33 = getelementptr inbounds %struct._zend_llist_element, ptr %32, i32 0, i32 1
  %34 = load ptr, ptr %33, align 8
  %35 = getelementptr inbounds %struct._zend_llist_element, ptr %34, i32 0, i32 0
  store ptr %31, ptr %35, align 8
  br label %42

36:                                               ; preds = %23
  %37 = load ptr, ptr %5, align 8
  %38 = getelementptr inbounds %struct._zend_llist_element, ptr %37, i32 0, i32 0
  %39 = load ptr, ptr %38, align 8
  %40 = load ptr, ptr %3, align 8
  %41 = getelementptr inbounds %struct._zend_llist, ptr %40, i32 0, i32 0
  store ptr %39, ptr %41, align 8
  br label %42

42:                                               ; preds = %36, %28
  %43 = load ptr, ptr %5, align 8
  %44 = getelementptr inbounds %struct._zend_llist_element, ptr %43, i32 0, i32 0
  %45 = load ptr, ptr %44, align 8
  %46 = icmp ne ptr %45, null
  br i1 %46, label %47, label %55

47:                                               ; preds = %42
  %48 = load ptr, ptr %5, align 8
  %49 = getelementptr inbounds %struct._zend_llist_element, ptr %48, i32 0, i32 1
  %50 = load ptr, ptr %49, align 8
  %51 = load ptr, ptr %5, align 8
  %52 = getelementptr inbounds %struct._zend_llist_element, ptr %51, i32 0, i32 0
  %53 = load ptr, ptr %52, align 8
  %54 = getelementptr inbounds %struct._zend_llist_element, ptr %53, i32 0, i32 1
  store ptr %50, ptr %54, align 8
  br label %61

55:                                               ; preds = %42
  %56 = load ptr, ptr %5, align 8
  %57 = getelementptr inbounds %struct._zend_llist_element, ptr %56, i32 0, i32 1
  %58 = load ptr, ptr %57, align 8
  %59 = load ptr, ptr %3, align 8
  %60 = getelementptr inbounds %struct._zend_llist, ptr %59, i32 0, i32 1
  store ptr %58, ptr %60, align 8
  br label %61

61:                                               ; preds = %55, %47
  %62 = load ptr, ptr %3, align 8
  %63 = getelementptr inbounds %struct._zend_llist, ptr %62, i32 0, i32 4
  %64 = load ptr, ptr %63, align 8
  %65 = icmp ne ptr %64, null
  br i1 %65, label %66, label %73

66:                                               ; preds = %61
  %67 = load ptr, ptr %3, align 8
  %68 = getelementptr inbounds %struct._zend_llist, ptr %67, i32 0, i32 4
  %69 = load ptr, ptr %68, align 8
  %70 = load ptr, ptr %5, align 8
  %71 = getelementptr inbounds %struct._zend_llist_element, ptr %70, i32 0, i32 2
  %72 = getelementptr inbounds [1 x i8], ptr %71, i64 0, i64 0
  call void %69(ptr noundef %72)
  br label %73

73:                                               ; preds = %66, %61
  %74 = load ptr, ptr %3, align 8
  %75 = getelementptr inbounds %struct._zend_llist, ptr %74, i32 0, i32 5
  %76 = load i8, ptr %75, align 8
  %77 = zext i8 %76 to i32
  %78 = icmp ne i32 %77, 0
  br i1 %78, label %79, label %81

79:                                               ; preds = %73
  %80 = load ptr, ptr %5, align 8
  call void @free(ptr noundef %80) #8
  br label %83

81:                                               ; preds = %73
  %82 = load ptr, ptr %5, align 8
  call void @_efree(ptr noundef %82)
  br label %83

83:                                               ; preds = %81, %79
  %84 = load ptr, ptr %3, align 8
  %85 = getelementptr inbounds %struct._zend_llist, ptr %84, i32 0, i32 2
  %86 = load i64, ptr %85, align 8
  %87 = add i64 %86, -1
  store i64 %87, ptr %85, align 8
  br label %88

88:                                               ; preds = %83, %13
  %89 = load ptr, ptr %6, align 8
  store ptr %89, ptr %5, align 8
  br label %10

90:                                               ; preds = %10
  ret void
}