; Function Attrs: nounwind uwtable
define void @zend_llist_apply_with_del(ptr nocapture noundef %0, ptr nocapture noundef readonly %1) local_unnamed_addr #1 {
  %3 = load ptr, ptr %0, align 8
  %.not31 = icmp eq ptr %3, null
  br i1 %.not31, label %._crit_edge, label %.lr.ph

.lr.ph:                                           ; preds = %2
  %4 = getelementptr inbounds i8, ptr %0, i64 32
  %5 = getelementptr inbounds i8, ptr %0, i64 40
  %6 = getelementptr inbounds i8, ptr %0, i64 16
  br label %7

7:                                                ; preds = %.lr.ph, %25
  %.032 = phi ptr [ %3, %.lr.ph ], [ %8, %25 ]
  %8 = load ptr, ptr %.032, align 8
  %9 = getelementptr inbounds i8, ptr %.032, i64 16
  %10 = tail call i32 %1(ptr noundef nonnull %9) #13
  %.not26 = icmp eq i32 %10, 0
  br i1 %.not26, label %25, label %11

11:                                               ; preds = %7
  %12 = getelementptr inbounds i8, ptr %.032, i64 8
  %13 = load ptr, ptr %12, align 8
  %.not27 = icmp eq ptr %13, null
  %14 = load ptr, ptr %.032, align 8
  %. = select i1 %.not27, ptr %0, ptr %13
  store ptr %14, ptr %., align 8
  %.not28 = icmp eq ptr %14, null
  %15 = load ptr, ptr %12, align 8
  %.sink.v = select i1 %.not28, ptr %0, ptr %14
  %.sink = getelementptr inbounds i8, ptr %.sink.v, i64 8
  store ptr %15, ptr %.sink, align 8
  %16 = load ptr, ptr %4, align 8
  %.not29 = icmp eq ptr %16, null
  br i1 %.not29, label %18, label %17

17:                                               ; preds = %11
  tail call void %16(ptr noundef nonnull %9) #13
  br label %18

18:                                               ; preds = %17, %11
  %19 = load i8, ptr %5, align 8
  %.not30 = icmp eq i8 %19, 0
  br i1 %.not30, label %21, label %20

20:                                               ; preds = %18
  tail call void @free(ptr noundef nonnull %.032) #13
  br label %22

21:                                               ; preds = %18
  tail call void @_efree(ptr noundef nonnull %.032) #13
  br label %22

22:                                               ; preds = %21, %20
  %23 = load i64, ptr %6, align 8
  %24 = add i64 %23, -1
  store i64 %24, ptr %6, align 8
  br label %25

25:                                               ; preds = %22, %7
  %.not = icmp eq ptr %8, null
  br i1 %.not, label %._crit_edge, label %7

._crit_edge:                                      ; preds = %25, %2
  ret void
}